; Function Attrs: mustprogress nounwind uwtable
define hidden void @_ZNK8PhaseCCP28push_child_nodes_to_worklistER16Unique_Node_ListP4Node(ptr nocapture noundef nonnull readonly align 8 dereferenceable(2488) %0, ptr noundef nonnull align 8 dereferenceable(68) %1, ptr noundef %2) local_unnamed_addr #0 align 2 {
  %4 = getelementptr inbounds i8, ptr %2, i64 16
  %5 = load ptr, ptr %4, align 8
  %6 = getelementptr inbounds i8, ptr %2, i64 32
  %7 = load i32, ptr %6, align 8
  %8 = zext i32 %7 to i64
  %9 = getelementptr inbounds ptr, ptr %5, i64 %8
  %.not = icmp eq i32 %7, 0
  br i1 %.not, label %._crit_edge, label %.lr.ph

.lr.ph:                                           ; preds = %3
  %10 = getelementptr inbounds i8, ptr %0, i64 40
  %11 = getelementptr inbounds i8, ptr %1, i64 32
  %12 = getelementptr inbounds i8, ptr %1, i64 40
  %13 = getelementptr inbounds i8, ptr %1, i64 24
  %14 = getelementptr inbounds i8, ptr %1, i64 8
  %15 = getelementptr inbounds i8, ptr %1, i64 16
  br label %16

16:                                               ; preds = %.lr.ph, %_ZNK8PhaseCCP23push_if_not_bottom_typeER16Unique_Node_ListP4Node.exit
  %.011 = phi ptr [ %5, %.lr.ph ], [ %50, %_ZNK8PhaseCCP23push_if_not_bottom_typeER16Unique_Node_ListP4Node.exit ]
  %17 = load ptr, ptr %.011, align 8
  %18 = load ptr, ptr %17, align 8
  %19 = getelementptr inbounds i8, ptr %18, i64 40
  %20 = load ptr, ptr %19, align 8
  %21 = tail call noundef ptr %20(ptr noundef nonnull align 8 dereferenceable(52) %17) #16
  %22 = load ptr, ptr %10, align 8
  %23 = getelementptr inbounds i8, ptr %17, i64 40
  %24 = load i32, ptr %23, align 8
  %25 = getelementptr inbounds i8, ptr %22, i64 16
  %26 = load ptr, ptr %25, align 8
  %27 = zext i32 %24 to i64
  %28 = getelementptr inbounds ptr, ptr %26, i64 %27
  %29 = load ptr, ptr %28, align 8
  %.not.i = icmp eq ptr %21, %29
  br i1 %.not.i, label %_ZNK8PhaseCCP23push_if_not_bottom_typeER16Unique_Node_ListP4Node.exit, label %30

30:                                               ; preds = %16
  %31 = lshr i32 %24, 5
  %32 = load i32, ptr %11, align 8
  %.not.i.i.i = icmp ult i32 %31, %32
  br i1 %.not.i.i.i, label %_ZN9VectorSet8test_setEj.exit.i.i, label %33

33:                                               ; preds = %30
  tail call void @_ZN9VectorSet4growEj(ptr noundef nonnull align 8 dereferenceable(32) %11, i32 noundef %31) #16
  br label %_ZN9VectorSet8test_setEj.exit.i.i

_ZN9VectorSet8test_setEj.exit.i.i:                ; preds = %33, %30
  %34 = and i32 %24, 31
  %35 = shl nuw i32 1, %34
  %36 = load ptr, ptr %12, align 8
  %37 = zext nneg i32 %31 to i64
  %38 = getelementptr inbounds i32, ptr %36, i64 %37
  %39 = load i32, ptr %38, align 4
  %40 = or i32 %39, %35
  store i32 %40, ptr %38, align 4
  %41 = and i32 %39, %35
  %.not.i.i = icmp eq i32 %41, 0
  br i1 %.not.i.i, label %42, label %_ZNK8PhaseCCP23push_if_not_bottom_typeER16Unique_Node_ListP4Node.exit

42:                                               ; preds = %_ZN9VectorSet8test_setEj.exit.i.i
  %43 = load i32, ptr %13, align 8
  %44 = add i32 %43, 1
  store i32 %44, ptr %13, align 8
  %45 = load i32, ptr %14, align 8
  %.not.i.i.i.i = icmp ugt i32 %45, %43
  br i1 %.not.i.i.i.i, label %_ZN9Node_List4pushEP4Node.exit.i.i, label %46

46:                                               ; preds = %42
  tail call void @_ZN10Node_Array4growEj(ptr noundef nonnull align 8 dereferenceable(24) %1, i32 noundef %43) #16
  br label %_ZN9Node_List4pushEP4Node.exit.i.i

_ZN9Node_List4pushEP4Node.exit.i.i:               ; preds = %46, %42
  %47 = load ptr, ptr %15, align 8
  %48 = zext i32 %43 to i64
  %49 = getelementptr inbounds ptr, ptr %47, i64 %48
  store ptr %17, ptr %49, align 8
  br label %_ZNK8PhaseCCP23push_if_not_bottom_typeER16Unique_Node_ListP4Node.exit

_ZNK8PhaseCCP23push_if_not_bottom_typeER16Unique_Node_ListP4Node.exit: ; preds = %16, %_ZN9VectorSet8test_setEj.exit.i.i, %_ZN9Node_List4pushEP4Node.exit.i.i
  tail call void @_ZNK8PhaseCCP14push_more_usesER16Unique_Node_ListP4NodePKS2_(ptr noundef nonnull align 8 dereferenceable(2488) %0, ptr noundef nonnull align 8 dereferenceable(68) %1, ptr noundef nonnull %2, ptr noundef nonnull %17)
  %50 = getelementptr inbounds i8, ptr %.011, i64 8
  %51 = icmp ult ptr %50, %9
  br i1 %51, label %16, label %._crit_edge, !llvm.loop !53

._crit_edge:                                      ; preds = %_ZNK8PhaseCCP23push_if_not_bottom_typeER16Unique_Node_ListP4Node.exit, %3
  ret void
}